target datalayout = "e-m:e-p270:32:32-p271:32:32-p272:64:64-i64:64-i128:128-f80:128-n8:16:32:64-S128"
target triple = "x86_64-pc-linux-gnu"

; Function Attrs: nounwind uwtable
define dso_local double @zend_oct_strtod(ptr noundef %0, ptr noundef %1) #0 {
  %3 = alloca double, align 8
  %4 = alloca ptr, align 8
  %5 = alloca ptr, align 8
  %6 = alloca ptr, align 8
  %7 = alloca i8, align 1
  %8 = alloca double, align 8
  %9 = alloca i32, align 4
  %10 = alloca i32, align 4
  store ptr %0, ptr %4, align 8, !tbaa !48
  store ptr %1, ptr %5, align 8, !tbaa !49
  call void @llvm.lifetime.start.p0(i64 8, ptr %6) #7
  %11 = load ptr, ptr %4, align 8, !tbaa !48
  store ptr %11, ptr %6, align 8, !tbaa !48
  call void @llvm.lifetime.start.p0(i64 1, ptr %7) #7
  call void @llvm.lifetime.start.p0(i64 8, ptr %8) #7
  store double 0.000000e+00, ptr %8, align 8, !tbaa !58
  call void @llvm.lifetime.start.p0(i64 4, ptr %9) #7
  store i32 0, ptr %9, align 4, !tbaa !4
  %12 = load ptr, ptr %4, align 8, !tbaa !48
  %13 = getelementptr inbounds i8, ptr %12, i64 0
  %14 = load i8, ptr %13, align 1, !tbaa !54
  %15 = sext i8 %14 to i32
  %16 = icmp eq i32 %15, 0
  br i1 %16, label %17, label %24

17:                                               ; preds = %2
  %18 = load ptr, ptr %5, align 8, !tbaa !49
  %19 = icmp ne ptr %18, null
  br i1 %19, label %20, label %23

20:                                               ; preds = %17
  %21 = load ptr, ptr %4, align 8, !tbaa !48
  %22 = load ptr, ptr %5, align 8, !tbaa !49
  store ptr %21, ptr %22, align 8, !tbaa !48
  br label %23

23:                                               ; preds = %20, %17
  store double 0.000000e+00, ptr %3, align 8
  store i32 1, ptr %10, align 4
  br label %63

24:                                               ; preds = %2
  br label %25

25:                                               ; preds = %39, %24
  %26 = load ptr, ptr %6, align 8, !tbaa !48
  %27 = getelementptr inbounds nuw i8, ptr %26, i32 1
  store ptr %27, ptr %6, align 8, !tbaa !48
  %28 = load i8, ptr %26, align 1, !tbaa !54
  store i8 %28, ptr %7, align 1, !tbaa !54
  %29 = icmp ne i8 %28, 0
  br i1 %29, label %30, label %47

30:                                               ; preds = %25
  %31 = load i8, ptr %7, align 1, !tbaa !54
  %32 = sext i8 %31 to i32
  %33 = icmp slt i32 %32, 48
  br i1 %33, label %38, label %34

34:                                               ; preds = %30
  %35 = load i8, ptr %7, align 1, !tbaa !54
  %36 = sext i8 %35 to i32
  %37 = icmp sgt i32 %36, 55
  br i1 %37, label %38, label %39

38:                                               ; preds = %34, %30
  br label %47

39:                                               ; preds = %34
  %40 = load double, ptr %8, align 8, !tbaa !58
  %41 = fmul double %40, 8.000000e+00
  %42 = load i8, ptr %7, align 1, !tbaa !54
  %43 = sext i8 %42 to i32
  %44 = sitofp i32 %43 to double
  %45 = fadd double %41, %44
  %46 = fsub double %45, 4.800000e+01
  store double %46, ptr %8, align 8, !tbaa !58
  store i32 1, ptr %9, align 4, !tbaa !4
  br label %25

47:                                               ; preds = %38, %25
  %48 = load ptr, ptr %5, align 8, !tbaa !49
  %49 = icmp ne ptr %48, null
  br i1 %49, label %50, label %61

50:                                               ; preds = %47
  %51 = load i32, ptr %9, align 4, !tbaa !4
  %52 = icmp ne i32 %51, 0
  br i1 %52, label %53, label %56

53:                                               ; preds = %50
  %54 = load ptr, ptr %6, align 8, !tbaa !48
  %55 = getelementptr inbounds i8, ptr %54, i64 -1
  br label %58

56:                                               ; preds = %50
  %57 = load ptr, ptr %4, align 8, !tbaa !48
  br label %58

58:                                               ; preds = %56, %53
  %59 = phi ptr [ %55, %53 ], [ %57, %56 ]
  %60 = load ptr, ptr %5, align 8, !tbaa !49
  store ptr %59, ptr %60, align 8, !tbaa !48
  br label %61

61:                                               ; preds = %58, %47
  %62 = load double, ptr %8, align 8, !tbaa !58
  store double %62, ptr %3, align 8
  store i32 1, ptr %10, align 4
  br label %63

63:                                               ; preds = %61, %23
  call void @llvm.lifetime.end.p0(i64 4, ptr %9) #7
  call void @llvm.lifetime.end.p0(i64 8, ptr %8) #7
  call void @llvm.lifetime.end.p0(i64 1, ptr %7) #7
  call void @llvm.lifetime.end.p0(i64 8, ptr %6) #7
  %64 = load double, ptr %3, align 8
  ret double %64
}