; Function Attrs: nofree norecurse nosync nounwind memory(argmem: readwrite) uwtable
define dso_local double @zend_oct_strtod(ptr noundef %0, ptr noundef writeonly captures(address_is_null) %1) local_unnamed_addr #5 {
  %3 = load i8, ptr %0, align 1, !tbaa !45
  %4 = icmp eq i8 %3, 0
  br i1 %4, label %6, label %.preheader

.preheader:                                       ; preds = %2
  %5 = add i8 %3, -56
  %or.cond28 = icmp ult i8 %5, -8
  br i1 %or.cond28, label %._crit_edge, label %.lr.ph

6:                                                ; preds = %2
  %.not26 = icmp eq ptr %1, null
  br i1 %.not26, label %15, label %.sink.split

.lr.ph:                                           ; preds = %.preheader, %.lr.ph
  %7 = phi i8 [ %13, %.lr.ph ], [ %3, %.preheader ]
  %.01830 = phi double [ %12, %.lr.ph ], [ 0.000000e+00, %.preheader ]
  %.02029 = phi ptr [ %8, %.lr.ph ], [ %0, %.preheader ]
  %8 = getelementptr inbounds nuw i8, ptr %.02029, i64 1
  %9 = fmul double %.01830, 8.000000e+00
  %10 = uitofp nneg i8 %7 to double
  %11 = fadd double %9, %10
  %12 = fadd double %11, -4.800000e+01
  %13 = load i8, ptr %8, align 1, !tbaa !45
  %14 = add i8 %13, -56
  %or.cond = icmp ult i8 %14, -8
  br i1 %or.cond, label %._crit_edge, label %.lr.ph

._crit_edge:                                      ; preds = %.lr.ph, %.preheader
  %.020.lcssa = phi ptr [ %0, %.preheader ], [ %8, %.lr.ph ]
  %.018.lcssa = phi double [ 0.000000e+00, %.preheader ], [ %12, %.lr.ph ]
  %.not24 = icmp eq ptr %1, null
  br i1 %.not24, label %15, label %.sink.split

.sink.split:                                      ; preds = %._crit_edge, %6
  %.020.lcssa.sink = phi ptr [ %0, %6 ], [ %.020.lcssa, %._crit_edge ]
  %.019.ph = phi double [ 0.000000e+00, %6 ], [ %.018.lcssa, %._crit_edge ]
  store ptr %.020.lcssa.sink, ptr %1, align 8, !tbaa !53
  br label %15

15:                                               ; preds = %.sink.split, %._crit_edge, %6
  %.019 = phi double [ 0.000000e+00, %6 ], [ %.018.lcssa, %._crit_edge ], [ %.019.ph, %.sink.split ]
  ret double %.019
}